	.arch armv7-a
	.fpu softvfp
	.eabi_attribute 20, 1
	.eabi_attribute 21, 1
	.eabi_attribute 23, 3
	.eabi_attribute 24, 1
	.eabi_attribute 25, 1
	.eabi_attribute 26, 2
	.eabi_attribute 30, 2
	.eabi_attribute 34, 1
	.eabi_attribute 18, 4
	.file	"hacc_export.c"
	.text
.Ltext0:
	.align	2
	.type	sp_hacc_internal.isra.0, %function
sp_hacc_internal.isra.0:
.LFB189:
	.file 1 "hacc_export.c"
	.loc 1 89 0
	@ args = 8, pretend = 0, frame = 8
	@ frame_needed = 1, uses_anonymous_args = 0
.LVL0:
	mov	ip, sp
.LCFI0:
	stmfd	sp!, {r4, r5, r6, r7, fp, ip, lr, pc}
.LCFI1:
	sub	fp, ip, #4
.LCFI2:
	sub	sp, sp, #8
	.loc 1 96 0
	cmp	r3, #1
	.loc 1 89 0
	mov	r5, r3
	mov	r4, r0
	mov	r6, r1
	ldrb	r7, [fp, #8]	@ zero_extendqisi2
.LVL1:
	.loc 1 96 0
	beq	.L2
.L10:
	.loc 1 111 0
	cmp	r2, #3
	ldrls	pc, [pc, r2, asl #2]
	b	.L14
.L5:
	.word	.L4
	.word	.L6
	.word	.L7
	.word	.L8
.L8:
	.loc 1 161 0
	adds	r0, r7, #0
	ldr	r1, .L21
	movne	r0, #1
.L18:
	bl	HACC_V3_Init
.LVL2:
	.loc 1 163 0
	mov	r0, r4
	mov	r1, r6
	mov	r2, r4
	bl	HACC_V3_Run
.LVL3:
	.loc 1 165 0
	bl	HACC_V3_Terminate
.LVL4:
.L11:
	.loc 1 176 0
	cmp	r5, #1
	beq	.L20
	.loc 1 194 0
	mov	r0, r4
	sub	sp, fp, #28
	ldmfd	sp, {r4, r5, r6, r7, fp, sp, pc}
.LVL5:
.L7:
	.loc 1 139 0
	movw	r3, #:lower16:.LANCHOR1
	movt	r3, #:upper16:.LANCHOR1
	ldrb	r3, [r3]	@ zero_extendqisi2
	cmp	r3, #0
	beq	.L16
	.loc 1 146 0
	mov	r0, #2
	mov	r1, #32
	bl	hacc_set_key
.LVL6:
	.loc 1 148 0
	subs	r2, r0, #0
.LVL7:
	bne	.L3
	.loc 1 151 0
	mov	r2, r4
.LVL8:
	bic	r3, r6, #127
	ldr	r0, [fp, #4]
	mov	r1, r4
	bl	hacc_do_aes
.LVL9:
	.loc 1 153 0
	subs	r2, r0, #0
.LVL10:
	beq	.L11
.L3:
	.loc 1 184 0
	cmp	r5, #1
	beq	.L9
.L13:
	.loc 1 189 0
	movw	r0, #:lower16:.LC0
	movw	r1, #:lower16:.LC1
	movt	r0, #:upper16:.LC0
	movt	r1, #:upper16:.LC1
	bl	printk
.LVL11:
	.loc 1 191 0
@ 191 "hacc_export.c" 1
	.long ((0xe7f001f2) & 0xFFFFFFFF)


@ 0 "" 2
.LVL12:
.L6:
	.loc 1 128 0
	adds	r0, r7, #0
	ldr	r1, .L21+4
	movne	r0, #1
	b	.L18
.L4:
	.loc 1 117 0
	adds	r0, r7, #0
	movw	r1, #:lower16:.LANCHOR0
	movt	r1, #:upper16:.LANCHOR0
	movne	r0, #1
	b	.L18
.LVL13:
.L20:
	.loc 1 178 0
	bl	osal_hacc_unlock
.LVL14:
	.loc 1 194 0
	mov	r0, r4
	sub	sp, fp, #28
	ldmfd	sp, {r4, r5, r6, r7, fp, sp, pc}
.LVL15:
.L2:
	.loc 1 99 0
	str	r2, [fp, #-32]
.LVL16:
	bl	osal_hacc_lock
.LVL17:
	.loc 1 101 0
	ldr	r2, [fp, #-32]
	cmp	r0, #0
	beq	.L10
	.loc 1 103 0
	movw	r2, #24586
.LVL18:
.L9:
	.loc 1 186 0
	str	r2, [fp, #-32]
.LVL19:
	bl	osal_hacc_unlock
.LVL20:
	ldr	r2, [fp, #-32]
	b	.L13
.LVL21:
.L16:
	.loc 1 141 0
	movw	r2, #24583
.LVL22:
	b	.L3
.LVL23:
.L14:
	.loc 1 169 0
	movw	r2, #24588
.LVL24:
	b	.L3
.L22:
	.align	2
.L21:
	.word	.LANCHOR0+64
	.word	.LANCHOR0+32
.LFE189:
	.size	sp_hacc_internal.isra.0, .-sp_hacc_internal.isra.0
	.align	2
	.global	masp_hal_sp_hacc_enc
	.type	masp_hal_sp_hacc_enc, %function
masp_hal_sp_hacc_enc:
.LFB185:
	.loc 1 200 0
	@ args = 4, pretend = 0, frame = 0
	@ frame_needed = 1, uses_anonymous_args = 0
.LVL25:
	mov	ip, sp
.LCFI3:
	stmfd	sp!, {fp, ip, lr, pc}
.LCFI4:
	sub	fp, ip, #4
.LCFI5:
	sub	sp, sp, #8
	.loc 1 200 0
	ldrb	lr, [fp, #4]	@ zero_extendqisi2
.LVL26:
	.loc 1 201 0
	mov	ip, #1
	mov	r2, r3
.LVL27:
	str	ip, [sp]
	str	ip, [sp, #4]
	mov	r3, lr
.LVL28:
	bl	sp_hacc_internal.isra.0
.LVL29:
	.loc 1 202 0
	sub	sp, fp, #12
	ldmfd	sp, {fp, sp, pc}
.LFE185:
	.size	masp_hal_sp_hacc_enc, .-masp_hal_sp_hacc_enc
	.align	2
	.global	masp_hal_sp_hacc_dec
	.type	masp_hal_sp_hacc_dec, %function
masp_hal_sp_hacc_dec:
.LFB186:
	.loc 1 209 0
	@ args = 4, pretend = 0, frame = 0
	@ frame_needed = 1, uses_anonymous_args = 0
.LVL30:
	mov	ip, sp
.LCFI6:
	stmfd	sp!, {fp, ip, lr, pc}
.LCFI7:
	sub	fp, ip, #4
.LCFI8:
	sub	sp, sp, #8
	.loc 1 209 0
	ldrb	lr, [fp, #4]	@ zero_extendqisi2
.LVL31:
	.loc 1 210 0
	mov	ip, #0
	mov	r2, r3
.LVL32:
	str	ip, [sp]
	str	ip, [sp, #4]
	mov	r3, lr
.LVL33:
	bl	sp_hacc_internal.isra.0
.LVL34:
	.loc 1 211 0
	sub	sp, fp, #12
	ldmfd	sp, {fp, sp, pc}
.LFE186:
	.size	masp_hal_sp_hacc_dec, .-masp_hal_sp_hacc_dec
	.align	2
	.global	masp_hal_sp_hacc_blk_sz
	.type	masp_hal_sp_hacc_blk_sz, %function
masp_hal_sp_hacc_blk_sz:
.LFB187:
	.loc 1 217 0
	@ args = 0, pretend = 0, frame = 0
	@ frame_needed = 1, uses_anonymous_args = 0
	mov	ip, sp
.LCFI9:
	stmfd	sp!, {fp, ip, lr, pc}
.LCFI10:
	sub	fp, ip, #4
.LCFI11:
	.loc 1 219 0
	mov	r0, #16
	ldmfd	sp, {fp, sp, pc}
.LFE187:
	.size	masp_hal_sp_hacc_blk_sz, .-masp_hal_sp_hacc_blk_sz
	.align	2
	.global	masp_hal_sp_hacc_init
	.type	masp_hal_sp_hacc_init, %function
masp_hal_sp_hacc_init:
.LFB188:
	.loc 1 225 0
	@ args = 0, pretend = 0, frame = 40
	@ frame_needed = 1, uses_anonymous_args = 0
.LVL35:
	mov	ip, sp
.LCFI12:
	stmfd	sp!, {fp, ip, lr, pc}
.LCFI13:
	sub	fp, ip, #4
.LCFI14:
	sub	sp, sp, #48
	.loc 1 229 0
	cmp	r1, #16
	.loc 1 231 0
	movwne	r0, #24580
.LVL36:
	.loc 1 229 0
	beq	.L32
.L27:
	.loc 1 244 0
	sub	sp, fp, #12
	ldmfd	sp, {fp, sp, pc}
.L32:
	sub	r1, fp, #12
.LVL37:
	.loc 1 235 0
	mov	r3, #0
.LVL38:
	.loc 1 234 0
	mov	r2, #32
	str	r2, [fp, #-48]
.LVL39:
.L29:
	sub	ip, fp, #48
	.loc 1 237 0 discriminator 2
	ldrb	r2, [r0, r3]	@ zero_extendqisi2
	add	lr, ip, r3
	.loc 1 235 0 discriminator 2
	add	r3, r3, #1
	cmp	r3, #16
	.loc 1 238 0 discriminator 2
	add	ip, r2, #1
	.loc 1 237 0 discriminator 2
	strb	r2, [lr, #4]
	.loc 1 238 0 discriminator 2
	strb	ip, [r1, #-1]!
	.loc 1 235 0 discriminator 2
	bne	.L29
	.loc 1 241 0 discriminator 1
	ldrb	ip, [fp, #-41]	@ zero_extendqisi2
	movw	r0, #:lower16:.LC2
.LVL40:
	ldrb	r1, [fp, #-44]	@ zero_extendqisi2
	movt	r0, #:upper16:.LC2
	ldrb	r2, [fp, #-43]	@ zero_extendqisi2
	ldrb	r3, [fp, #-42]	@ zero_extendqisi2
.LVL41:
	str	ip, [sp]
	bl	printk
.LVL42:
	.loc 1 243 0 discriminator 1
	sub	r0, fp, #48
	bl	hacc_init
.LVL43:
	b	.L27
.LFE188:
	.size	masp_hal_sp_hacc_init, .-masp_hal_sp_hacc_init
	.global	bHACC_SWKeyInit
	.global	bHACC_HWWrapKeyInit
	.section	.rodata
	.align	2
	.set	.LANCHOR0,. + 0
	.type	g_HACC_CFG_1, %object
	.size	g_HACC_CFG_1, 32
g_HACC_CFG_1:
	.word	-1630272512
	.word	15238305
	.word	-470776899
	.word	793669002
	.word	-8155556
	.word	-381640477
	.word	-1924272954
	.word	1174145417
	.type	g_HACC_CFG_2, %object
	.size	g_HACC_CFG_2, 32
g_HACC_CFG_2:
	.word	-1437324070
	.word	1431445780
	.word	-470776899
	.word	1431445780
	.word	-1437324070
	.word	-1437324070
	.word	1431445780
	.word	-1437324070
	.type	g_HACC_CFG_3, %object
	.size	g_HACC_CFG_3, 32
g_HACC_CFG_3:
	.word	646231696
	.word	-345528130
	.word	-1592585140
	.word	393941525
	.word	378269286
	.word	310687364
	.word	-549728710
	.word	561999778
	.section	.rodata.str1.4,"aMS",%progbits,1
	.align	2
.LC0:
	.ascii	"[%s] HACC Fail (0x%x)\012\000"
	.space	1
.LC1:
	.ascii	"ASF\000"
.LC2:
	.ascii	"0x%x,0x%x,0x%x,0x%x\012\000"
	.bss
	.set	.LANCHOR1,. + 0
	.type	bHACC_HWWrapKeyInit, %object
	.size	bHACC_HWWrapKeyInit, 1
bHACC_HWWrapKeyInit:
	.space	1
	.type	bHACC_SWKeyInit, %object
	.size	bHACC_SWKeyInit, 1
bHACC_SWKeyInit:
	.space	1
	.section	.debug_frame,"",%progbits
.Lframe0:
	.4byte	.LECIE0-.LSCIE0
.LSCIE0:
	.4byte	0xffffffff
	.byte	0x3
	.ascii	"\000"
	.uleb128 0x1
	.sleb128 -4
	.uleb128 0xe
	.byte	0xc
	.uleb128 0xd
	.uleb128 0
	.align	2
.LECIE0:
.LSFDE0:
	.4byte	.LEFDE0-.LASFDE0
.LASFDE0:
	.4byte	.Lframe0
	.4byte	.LFB189
	.4byte	.LFE189-.LFB189
	.byte	0x4
	.4byte	.LCFI0-.LFB189
	.byte	0xd
	.uleb128 0xc
	.byte	0x4
	.4byte	.LCFI1-.LCFI0
	.byte	0x84
	.uleb128 0x8
	.byte	0x85
	.uleb128 0x7
	.byte	0x86
	.uleb128 0x6
	.byte	0x87
	.uleb128 0x5
	.byte	0x8b
	.uleb128 0x4
	.byte	0x8d
	.uleb128 0x3
	.byte	0x8e
	.uleb128 0x2
	.byte	0x4
	.4byte	.LCFI2-.LCFI1
	.byte	0xc
	.uleb128 0xb
	.uleb128 0x4
	.align	2
.LEFDE0:
.LSFDE2:
	.4byte	.LEFDE2-.LASFDE2
.LASFDE2:
	.4byte	.Lframe0
	.4byte	.LFB185
	.4byte	.LFE185-.LFB185
	.byte	0x4
	.4byte	.LCFI3-.LFB185
	.byte	0xd
	.uleb128 0xc
	.byte	0x4
	.4byte	.LCFI4-.LCFI3
	.byte	0x8b
	.uleb128 0x4
	.byte	0x8d
	.uleb128 0x3
	.byte	0x8e
	.uleb128 0x2
	.byte	0x4
	.4byte	.LCFI5-.LCFI4
	.byte	0xc
	.uleb128 0xb
	.uleb128 0x4
	.align	2
.LEFDE2:
.LSFDE4:
	.4byte	.LEFDE4-.LASFDE4
.LASFDE4:
	.4byte	.Lframe0
	.4byte	.LFB186
	.4byte	.LFE186-.LFB186
	.byte	0x4
	.4byte	.LCFI6-.LFB186
	.byte	0xd
	.uleb128 0xc
	.byte	0x4
	.4byte	.LCFI7-.LCFI6
	.byte	0x8b
	.uleb128 0x4
	.byte	0x8d
	.uleb128 0x3
	.byte	0x8e
	.uleb128 0x2
	.byte	0x4
	.4byte	.LCFI8-.LCFI7
	.byte	0xc
	.uleb128 0xb
	.uleb128 0x4
	.align	2
.LEFDE4:
.LSFDE6:
	.4byte	.LEFDE6-.LASFDE6
.LASFDE6:
	.4byte	.Lframe0
	.4byte	.LFB187
	.4byte	.LFE187-.LFB187
	.byte	0x4
	.4byte	.LCFI9-.LFB187
	.byte	0xd
	.uleb128 0xc
	.byte	0x4
	.4byte	.LCFI10-.LCFI9
	.byte	0x8b
	.uleb128 0x4
	.byte	0x8d
	.uleb128 0x3
	.byte	0x8e
	.uleb128 0x2
	.byte	0x4
	.4byte	.LCFI11-.LCFI10
	.byte	0xc
	.uleb128 0xb
	.uleb128 0x4
	.align	2
.LEFDE6:
.LSFDE8:
	.4byte	.LEFDE8-.LASFDE8
.LASFDE8:
	.4byte	.Lframe0
	.4byte	.LFB188
	.4byte	.LFE188-.LFB188
	.byte	0x4
	.4byte	.LCFI12-.LFB188
	.byte	0xd
	.uleb128 0xc
	.byte	0x4
	.4byte	.LCFI13-.LCFI12
	.byte	0x8b
	.uleb128 0x4
	.byte	0x8d
	.uleb128 0x3
	.byte	0x8e
	.uleb128 0x2
	.byte	0x4
	.4byte	.LCFI14-.LCFI13
	.byte	0xc
	.uleb128 0xb
	.uleb128 0x4
	.align	2
.LEFDE8:
	.text
.Letext0: